; Function Attrs: nounwind uwtable
define dso_local void @ExecForeignScanReInitializeDSM(ptr noundef %0, ptr noundef %1) local_unnamed_addr #0 {
  %3 = getelementptr inbounds nuw i8, ptr %0, i64 248
  %4 = load ptr, ptr %3, align 8
  %5 = getelementptr inbounds nuw i8, ptr %4, i64 304
  %6 = load ptr, ptr %5, align 8
  %.not = icmp eq ptr %6, null
  br i1 %.not, label %17, label %7

7:                                                ; preds = %2
  %8 = getelementptr inbounds nuw i8, ptr %0, i64 8
  %9 = load ptr, ptr %8, align 8
  %10 = getelementptr inbounds nuw i8, ptr %9, i64 40
  %11 = load i32, ptr %10, align 8
  %12 = getelementptr inbounds nuw i8, ptr %1, i64 88
  %13 = load ptr, ptr %12, align 8
  %14 = sext i32 %11 to i64
  %15 = tail call ptr @shm_toc_lookup(ptr noundef %13, i64 noundef %14, i1 noundef zeroext false) #5
  %16 = load ptr, ptr %5, align 8
  tail call void %16(ptr noundef nonnull %0, ptr noundef %1, ptr noundef %15) #5
  br label %17

17:                                               ; preds = %7, %2
  ret void
}